; Function Attrs: mustprogress nofree norecurse nosync nounwind willreturn memory(read, inaccessiblemem: none) uwtable
define hidden noundef i32 @_ZNK3sat6solver3psmERKNS_6clauseE(ptr nocapture noundef nonnull readonly align 8 dereferenceable(4408) %this, ptr noundef nonnull readonly align 4 dereferenceable(20) %c) local_unnamed_addr #7 align 2 {
entry:
  %m_size.i = getelementptr inbounds i8, ptr %c, i64 4
  %0 = load i32, ptr %m_size.i, align 4
  %idx.ext.i = zext i32 %0 to i64
  %add.ptr.i.idx = shl nuw nsw i64 %idx.ext.i, 2
  %1 = getelementptr i8, ptr %c, i64 %add.ptr.i.idx
  %add.ptr.i.ptr = getelementptr i8, ptr %1, i64 20
  %cmp.not7 = icmp eq i32 %0, 0
  br i1 %cmp.not7, label %for.end, label %for.body.lr.ph

for.body.lr.ph:                                   ; preds = %entry
  %m_lits.i.ptr = getelementptr inbounds i8, ptr %c, i64 20
  %m_phase = getelementptr inbounds i8, ptr %this, i64 3600
  %2 = load ptr, ptr %m_phase, align 8
  br label %for.body

for.body:                                         ; preds = %for.body.lr.ph, %for.body
  %r.09 = phi i32 [ 0, %for.body.lr.ph ], [ %spec.select, %for.body ]
  %__begin1.08 = phi ptr [ %m_lits.i.ptr, %for.body.lr.ph ], [ %incdec.ptr, %for.body ]
  %3 = load i32, ptr %__begin1.08, align 4
  %4 = and i32 %3, 1
  %tobool.i = icmp ne i32 %4, 0
  %shr.i = lshr i32 %3, 1
  %idxprom.i = zext nneg i32 %shr.i to i64
  %arrayidx.i = getelementptr inbounds i8, ptr %2, i64 %idxprom.i
  %5 = load i8, ptr %arrayidx.i, align 1
  %6 = and i8 %5, 1
  %7 = icmp ne i8 %6, 0
  %not.tobool7.not = xor i1 %tobool.i, %7
  %inc = zext i1 %not.tobool7.not to i32
  %spec.select = add i32 %r.09, %inc
  %incdec.ptr = getelementptr inbounds i8, ptr %__begin1.08, i64 4
  %cmp.not = icmp eq ptr %incdec.ptr, %add.ptr.i.ptr
  br i1 %cmp.not, label %for.end, label %for.body

for.end:                                          ; preds = %for.body, %entry
  %r.0.lcssa = phi i32 [ 0, %entry ], [ %spec.select, %for.body ]
  ret i32 %r.0.lcssa
}